target datalayout = "e-m:e-p270:32:32-p271:32:32-p272:64:64-i64:64-i128:128-f80:128-n8:16:32:64-S128"
target triple = "x86_64-pc-linux-gnu"

%struct.GC_Thread_Rep = type { %union.anon.0, ptr, i64, i8, [7 x i8], i64, i64, ptr, %struct.thread_local_freelists }
%union.anon.0 = type { ptr }
%struct.thread_local_freelists = type { [3 x [25 x ptr]], [25 x ptr] }
%struct.GC_StackContext_Rep = type { ptr, ptr, ptr, i64, ptr, i64, i8, [1 x i8], i16, ptr }
%struct.GC_stack_base = type { ptr }

@GC_is_initialized = internal global i32 0, align 4
@GC_stackbottom = global ptr null, align 8
@GC_threads = internal global [256 x ptr] zeroinitializer, align 16

; Function Attrs: nounwind uwtable
define internal ptr @GC_lookup_thread(i64 noundef %0) #0 {
  %2 = alloca i64, align 8
  %3 = alloca ptr, align 8
  store i64 %0, ptr %2, align 8
  %4 = load i64, ptr %2, align 8
  %5 = lshr i64 %4, 8
  %6 = load i64, ptr %2, align 8
  %7 = xor i64 %5, %6
  %8 = lshr i64 %7, 16
  %9 = load i64, ptr %2, align 8
  %10 = lshr i64 %9, 8
  %11 = load i64, ptr %2, align 8
  %12 = xor i64 %10, %11
  %13 = xor i64 %8, %12
  %14 = urem i64 %13, 256
  %15 = trunc i64 %14 to i32
  %16 = sext i32 %15 to i64
  %17 = getelementptr inbounds [256 x ptr], ptr @GC_threads, i64 0, i64 %16
  %18 = load ptr, ptr %17, align 8
  store ptr %18, ptr %3, align 8
  br label %19

19:                                               ; preds = %33, %1
  %20 = load ptr, ptr %3, align 8
  %21 = icmp ne ptr %20, null
  br i1 %21, label %22, label %37

22:                                               ; preds = %19
  %23 = load ptr, ptr %3, align 8
  %24 = getelementptr inbounds %struct.GC_Thread_Rep, ptr %23, i32 0, i32 2
  %25 = load i64, ptr %24, align 8
  %26 = load i64, ptr %2, align 8
  %27 = icmp eq i64 %25, %26
  %28 = zext i1 %27 to i32
  %29 = sext i32 %28 to i64
  %30 = icmp ne i64 %29, 0
  br i1 %30, label %31, label %32

31:                                               ; preds = %22
  br label %37

32:                                               ; preds = %22
  br label %33

33:                                               ; preds = %32
  %34 = load ptr, ptr %3, align 8
  %35 = getelementptr inbounds %struct.GC_Thread_Rep, ptr %34, i32 0, i32 0
  %36 = load ptr, ptr %35, align 8
  store ptr %36, ptr %3, align 8
  br label %19, !llvm.loop !98

37:                                               ; preds = %31, %19
  %38 = load ptr, ptr %3, align 8
  ret ptr %38
}

; Function Attrs: nounwind uwtable
define void @GC_set_stackbottom(ptr noundef %0, ptr noundef nonnull %1) #0 {
  %3 = alloca ptr, align 8
  %4 = alloca ptr, align 8
  %5 = alloca ptr, align 8
  %6 = alloca ptr, align 8
  store ptr %0, ptr %3, align 8
  store ptr %1, ptr %4, align 8
  %7 = load ptr, ptr %3, align 8
  store ptr %7, ptr %5, align 8
  %8 = load i32, ptr @GC_is_initialized, align 4
  %9 = sext i32 %8 to i64
  %10 = icmp ne i64 %9, 0
  br i1 %10, label %15, label %11

11:                                               ; preds = %2
  %12 = load ptr, ptr %4, align 8
  %13 = getelementptr inbounds %struct.GC_stack_base, ptr %12, i32 0, i32 0
  %14 = load ptr, ptr %13, align 8
  store ptr %14, ptr @GC_stackbottom, align 8
  br label %30

15:                                               ; preds = %2
  %16 = load ptr, ptr %5, align 8
  %17 = icmp eq ptr null, %16
  br i1 %17, label %18, label %21

18:                                               ; preds = %15
  %19 = call i64 @pthread_self() #23
  %20 = call ptr @GC_lookup_thread(i64 noundef %19)
  store ptr %20, ptr %5, align 8
  br label %21

21:                                               ; preds = %18, %15
  %22 = load ptr, ptr %5, align 8
  %23 = getelementptr inbounds %struct.GC_Thread_Rep, ptr %22, i32 0, i32 1
  %24 = load ptr, ptr %23, align 8
  store ptr %24, ptr %6, align 8
  %25 = load ptr, ptr %4, align 8
  %26 = getelementptr inbounds %struct.GC_stack_base, ptr %25, i32 0, i32 0
  %27 = load ptr, ptr %26, align 8
  %28 = load ptr, ptr %6, align 8
  %29 = getelementptr inbounds %struct.GC_StackContext_Rep, ptr %28, i32 0, i32 0
  store ptr %27, ptr %29, align 8
  br label %30

30:                                               ; preds = %21, %11
  ret void
}