; Function Attrs: nofree nosync nounwind memory(readwrite, inaccessiblemem: none) uwtable
define void @GC_set_stackbottom(ptr noundef readonly %0, ptr noundef nonnull readonly captures(none) %1) local_unnamed_addr #33 {
  %.b = load i1, ptr @GC_is_initialized, align 4
  br i1 %.b, label %3, label %19

3:                                                ; preds = %2
  %4 = icmp eq ptr %0, null
  br i1 %4, label %5, label %GC_lookup_thread.exit

5:                                                ; preds = %3
  %6 = tail call i64 @pthread_self() #48
  %7 = lshr i64 %6, 8
  %8 = xor i64 %7, %6
  %9 = lshr i64 %8, 16
  %10 = xor i64 %9, %8
  %11 = and i64 %10, 255
  %12 = getelementptr inbounds nuw [256 x ptr], ptr @GC_threads, i64 0, i64 %11
  br label %13

13:                                               ; preds = %13, %5
  %.0.in.i = phi ptr [ %12, %5 ], [ %.0.i, %13 ]
  %.0.i = load ptr, ptr %.0.in.i, align 8, !nonnull !140, !noundef !140
  %14 = getelementptr inbounds nuw i8, ptr %.0.i, i64 16
  %15 = load i64, ptr %14, align 8
  %16 = icmp eq i64 %15, %6
  br i1 %16, label %GC_lookup_thread.exit, label %13, !llvm.loop !10

GC_lookup_thread.exit:                            ; preds = %13, %3
  %.0 = phi ptr [ %0, %3 ], [ %.0.i, %13 ]
  %17 = getelementptr inbounds nuw i8, ptr %.0, i64 8
  %18 = load ptr, ptr %17, align 8
  br label %19

19:                                               ; preds = %2, %GC_lookup_thread.exit
  %.sink7 = phi ptr [ %18, %GC_lookup_thread.exit ], [ @GC_stackbottom, %2 ]
  %20 = load ptr, ptr %1, align 8
  store ptr %20, ptr %.sink7, align 8
  ret void
}